; Function Attrs: nounwind sspstrong uwtable
define internal range(i64 1, 0) i64 @get_PROCESS_ID(i64 %0, ptr readnone captures(none) %1) #1 {
  %3 = load i32, ptr @cached_pid, align 4, !tbaa !60
  %.not.i = icmp eq i32 %3, 0
  br i1 %.not.i, label %4, label %get_pid.exit, !prof !100

4:                                                ; preds = %2
  %5 = tail call i32 @getpid() #27
  store i32 %5, ptr @cached_pid, align 4, !tbaa !60
  br label %get_pid.exit

get_pid.exit:                                     ; preds = %2, %4
  %6 = phi i32 [ %5, %4 ], [ %3, %2 ]
  %7 = sext i32 %6 to i64
  %8 = shl nsw i64 %7, 1
  %9 = or disjoint i64 %8, 1
  ret i64 %9
}